; Function Attrs: mustprogress uwtable
define void @_ZN7rocksdb23DBOptionsAsConfigurableERKNS_16MutableDBOptionsE(ptr dead_on_unwind noalias writable writeonly sret(%"class.std::unique_ptr") align 8 captures(none) %0, ptr noundef nonnull align 8 dereferenceable(144) %1) local_unnamed_addr #6 personality ptr @__gxx_personality_v0 {
  %3 = tail call noalias noundef nonnull dereferenceable(184) ptr @_Znwm(i64 noundef 184) #29
  invoke void @_ZN7rocksdb21MutableDBConfigurableC2ERKNS_16MutableDBOptionsEPKSt13unordered_mapINSt7__cxx1112basic_stringIcSt11char_traitsIcESaIcEEESA_St4hashISA_ESt8equal_toISA_ESaISt4pairIKSA_SA_EEE(ptr noundef nonnull align 8 dereferenceable(184) %3, ptr noundef nonnull align 8 dereferenceable(144) %1, ptr noundef null)
          to label %4 unwind label %5

4:                                                ; preds = %2
  store ptr %3, ptr %0, align 8, !tbaa !81
  ret void

5:                                                ; preds = %2
  %6 = landingpad { ptr, i32 }
          cleanup
  tail call void @_ZdlPvm(ptr noundef nonnull %3, i64 noundef 184) #26
  resume { ptr, i32 } %6
}